; Function Attrs: null_pointer_is_valid sspstrong uwtable
define internal fastcc void @dissect_coap_opt_uint(ptr noundef %0, ptr noundef %1, ptr noundef %2, i32 noundef %3, i32 noundef %4, i32 noundef %5) unnamed_addr #1 {
  switch i32 %4, label %17 [
    i32 0, label %coap_get_opt_uint.exit
    i32 4, label %15
    i32 1, label %7
    i32 2, label %10
    i32 3, label %13
  ]

7:                                                ; preds = %6
  %8 = tail call zeroext i8 @tvb_get_uint8(ptr noundef %0, i32 noundef %3)
  %9 = zext i8 %8 to i32
  br label %coap_get_opt_uint.exit

10:                                               ; preds = %6
  %11 = tail call zeroext i16 @tvb_get_ntohs(ptr noundef %0, i32 noundef %3)
  %12 = zext i16 %11 to i32
  br label %coap_get_opt_uint.exit

13:                                               ; preds = %6
  %14 = tail call i32 @tvb_get_ntoh24(ptr noundef %0, i32 noundef %3)
  br label %coap_get_opt_uint.exit

15:                                               ; preds = %6
  %16 = tail call i32 @tvb_get_ntohl(ptr noundef %0, i32 noundef %3)
  br label %coap_get_opt_uint.exit

17:                                               ; preds = %6
  br label %coap_get_opt_uint.exit

coap_get_opt_uint.exit:                           ; preds = %6, %17, %15, %13, %10, %7
  %.0 = phi i32 [ %4, %6 ], [ -1, %17 ], [ %16, %15 ], [ %14, %13 ], [ %12, %10 ], [ %9, %7 ]
  %18 = tail call ptr @proto_tree_add_uint(ptr noundef %2, i32 noundef %5, ptr noundef %0, i32 noundef %3, i32 noundef %4, i32 noundef %.0)
  tail call void (ptr, ptr, ...) @proto_item_append_text(ptr noundef %1, ptr noundef nonnull @.str.318, i32 noundef %.0)
  ret void
}